; Function Attrs: mustprogress uwtable
define void @color_filter_add_cb(ptr noundef %0, ptr noundef %1) #4 {
  %3 = icmp eq ptr %1, null
  br i1 %3, label %5, label %4

4:                                                ; preds = %2
  tail call void @_ZN18ColoringRulesModel8addColorEP13_color_filter(ptr noundef nonnull align 8 dereferenceable(88) %1, ptr noundef %0)
  br label %5

5:                                                ; preds = %2, %4
  ret void
}